target datalayout = "e-m:e-p270:32:32-p271:32:32-p272:64:64-i64:64-i128:128-f80:128-n8:16:32:64-S128"
target triple = "x86_64-pc-linux-gnu"

%class.ClassListParser = type { ptr, %class.ResizeableResourceHashtable, %class.FileInput, %class.inputStream, ptr, i32, ptr, ptr, i32, i32, ptr, i8, ptr, i32, ptr }
%class.ResizeableResourceHashtable = type { %class.ResourceHashtableBase.base, i32 }
%class.ResourceHashtableBase.base = type <{ %class.ResizeableResourceHashtableStorage, i32 }>
%class.ResizeableResourceHashtableStorage = type { i32, ptr }
%class.FileInput = type { %"class.inputStream::Input", ptr, %class.fileStream }
%"class.inputStream::Input" = type { ptr }
%class.fileStream = type <{ %class.outputStream, ptr, i8, [7 x i8] }>
%class.outputStream = type { ptr, i32, i8, i32, i64, %class.TimeStamp, ptr, i64 }
%class.TimeStamp = type { i64 }
%class.inputStream = type { ptr, ptr, i32, i8, ptr, i64, i64, i64, i64, i64, i64, [240 x i8] }

@.str.21 = private unnamed_addr constant [49 x i8] c"Too few items following the @ tag \22%s\22 line #%zu\00", align 1

; Function Attrs: mustprogress nounwind uwtable
define linkonce_odr hidden noundef zeroext i1 @_ZNK11inputStream12need_to_readEv(ptr noundef nonnull align 8 dereferenceable(320) %0) #1 comdat align 2 {
  %2 = alloca ptr, align 8
  store ptr %0, ptr %2, align 8
  %3 = load ptr, ptr %2, align 8
  %4 = getelementptr inbounds %class.inputStream, ptr %3, i32 0, i32 9
  %5 = load i64, ptr %4, align 8
  %6 = getelementptr inbounds %class.inputStream, ptr %3, i32 0, i32 8
  %7 = load i64, ptr %6, align 8
  %8 = icmp eq i64 %5, %7
  ret i1 %8
}

; Function Attrs: mustprogress nounwind uwtable
define linkonce_odr hidden void @_ZNK11inputStream7preloadEv(ptr noundef nonnull align 8 dereferenceable(320) %0) #1 comdat align 2 {
  %2 = alloca ptr, align 8
  store ptr %0, ptr %2, align 8
  %3 = load ptr, ptr %2, align 8
  %4 = call noundef zeroext i1 @_ZNK11inputStream12need_to_readEv(ptr noundef nonnull align 8 dereferenceable(320) %3)
  br i1 %4, label %5, label %7

5:                                                ; preds = %1
  %6 = call noundef zeroext i1 @_ZN11inputStream11fill_bufferEv(ptr noundef nonnull align 8 dereferenceable(320) %3)
  br label %7

7:                                                ; preds = %5, %1
  ret void
}

; Function Attrs: mustprogress nounwind uwtable
define linkonce_odr hidden noundef i64 @_ZNK11inputStream6linenoEv(ptr noundef nonnull align 8 dereferenceable(320) %0) #1 comdat align 2 {
  %2 = alloca ptr, align 8
  store ptr %0, ptr %2, align 8
  %3 = load ptr, ptr %2, align 8
  call void @_ZNK11inputStream7preloadEv(ptr noundef nonnull align 8 dereferenceable(320) %3)
  %4 = getelementptr inbounds %class.inputStream, ptr %3, i32 0, i32 10
  %5 = load i64, ptr %4, align 8
  ret i64 %5
}

; Function Attrs: mustprogress nounwind uwtable
define linkonce_odr hidden noundef i64 @_ZN15ClassListParser6linenoEv(ptr noundef nonnull align 8 dereferenceable(520) %0) #1 comdat align 2 {
  %2 = alloca ptr, align 8
  store ptr %0, ptr %2, align 8
  %3 = load ptr, ptr %2, align 8
  %4 = getelementptr inbounds %class.ClassListParser, ptr %3, i32 0, i32 3
  %5 = call noundef i64 @_ZNK11inputStream6linenoEv(ptr noundef nonnull align 8 dereferenceable(320) %4)
  ret i64 %5
}

; Function Attrs: mustprogress nounwind uwtable
define hidden noundef i32 @_ZN15ClassListParser22split_at_tag_from_lineEv(ptr noundef nonnull align 8 dereferenceable(520) %0) #1 align 2 {
  %2 = alloca i32, align 4
  %3 = alloca ptr, align 8
  %4 = alloca ptr, align 8
  store ptr %0, ptr %3, align 8
  %5 = load ptr, ptr %3, align 8
  %6 = getelementptr inbounds %class.ClassListParser, ptr %5, i32 0, i32 4
  %7 = load ptr, ptr %6, align 8
  %8 = getelementptr inbounds %class.ClassListParser, ptr %5, i32 0, i32 14
  store ptr %7, ptr %8, align 8
  %9 = getelementptr inbounds %class.ClassListParser, ptr %5, i32 0, i32 4
  %10 = load ptr, ptr %9, align 8
  %11 = call noundef ptr @strchr(ptr noundef %10, i32 noundef 32) #12
  store ptr %11, ptr %4, align 8
  %12 = icmp eq ptr %11, null
  br i1 %12, label %13, label %17

13:                                               ; preds = %1
  %14 = getelementptr inbounds %class.ClassListParser, ptr %5, i32 0, i32 4
  %15 = load ptr, ptr %14, align 8
  %16 = call noundef i64 @_ZN15ClassListParser6linenoEv(ptr noundef nonnull align 8 dereferenceable(520) %5)
  call void (ptr, ptr, ...) @_ZN15ClassListParser5errorEPKcz(ptr noundef nonnull align 8 dereferenceable(520) %5, ptr noundef @.str.21, ptr noundef %15, i64 noundef %16)
  store i32 0, ptr %2, align 4
  br label %43

17:                                               ; preds = %1
  %18 = load ptr, ptr %4, align 8
  %19 = getelementptr inbounds i8, ptr %18, i32 1
  store ptr %19, ptr %4, align 8
  store i8 0, ptr %18, align 1
  br label %20

20:                                               ; preds = %32, %17
  %21 = load ptr, ptr %4, align 8
  %22 = load i8, ptr %21, align 1
  %23 = sext i8 %22 to i32
  %24 = icmp eq i32 %23, 32
  br i1 %24, label %30, label %25

25:                                               ; preds = %20
  %26 = load ptr, ptr %4, align 8
  %27 = load i8, ptr %26, align 1
  %28 = sext i8 %27 to i32
  %29 = icmp eq i32 %28, 9
  br label %30

30:                                               ; preds = %25, %20
  %31 = phi i1 [ true, %20 ], [ %29, %25 ]
  br i1 %31, label %32, label %35

32:                                               ; preds = %30
  %33 = load ptr, ptr %4, align 8
  %34 = getelementptr inbounds i8, ptr %33, i32 1
  store ptr %34, ptr %4, align 8
  br label %20, !llvm.loop !16

35:                                               ; preds = %30
  %36 = load ptr, ptr %4, align 8
  %37 = getelementptr inbounds %class.ClassListParser, ptr %5, i32 0, i32 4
  %38 = load ptr, ptr %37, align 8
  %39 = ptrtoint ptr %36 to i64
  %40 = ptrtoint ptr %38 to i64
  %41 = sub i64 %39, %40
  %42 = trunc i64 %41 to i32
  store i32 %42, ptr %2, align 4
  br label %43

43:                                               ; preds = %35, %13
  %44 = load i32, ptr %2, align 4
  ret i32 %44
}