; Function Attrs: mustprogress nounwind uwtable
define hidden noundef i32 @_ZN15ClassListParser22split_at_tag_from_lineEv(ptr noundef nonnull align 8 dereferenceable(520) %0) local_unnamed_addr #0 align 2 {
  %2 = getelementptr inbounds i8, ptr %0, i64 440
  %3 = load ptr, ptr %2, align 8
  %4 = getelementptr inbounds i8, ptr %0, i64 512
  store ptr %3, ptr %4, align 8
  %5 = tail call noundef ptr @strchr(ptr noundef nonnull dereferenceable(1) %3, i32 noundef 32) #20
  %6 = icmp eq ptr %5, null
  br i1 %6, label %7, label %18

7:                                                ; preds = %1
  %8 = getelementptr inbounds i8, ptr %0, i64 184
  %9 = load i64, ptr %8, align 8
  %10 = getelementptr inbounds i8, ptr %0, i64 176
  %11 = load i64, ptr %10, align 8
  %12 = icmp eq i64 %9, %11
  br i1 %12, label %13, label %_ZN15ClassListParser6linenoEv.exit

13:                                               ; preds = %7
  %14 = getelementptr inbounds i8, ptr %0, i64 120
  %15 = tail call noundef zeroext i1 @_ZN11inputStream11fill_bufferEv(ptr noundef nonnull align 8 dereferenceable(320) %14) #19
  br label %_ZN15ClassListParser6linenoEv.exit

_ZN15ClassListParser6linenoEv.exit:               ; preds = %7, %13
  %16 = getelementptr inbounds i8, ptr %0, i64 192
  %17 = load i64, ptr %16, align 8
  tail call void (ptr, ptr, ...) @_ZN15ClassListParser5errorEPKcz(ptr noundef nonnull align 8 dereferenceable(520) %0, ptr noundef nonnull @.str.21, ptr noundef %3, i64 noundef %17)
  br label %26

18:                                               ; preds = %1
  store i8 0, ptr %5, align 1
  br label %.critedge

.critedge:                                        ; preds = %.critedge.backedge, %18
  %.pn = phi ptr [ %5, %18 ], [ %.0, %.critedge.backedge ]
  %.0 = getelementptr inbounds i8, ptr %.pn, i64 1
  %19 = load i8, ptr %.0, align 1
  switch i8 %19, label %20 [
    i8 32, label %.critedge.backedge
    i8 9, label %.critedge.backedge
  ]

.critedge.backedge:                               ; preds = %.critedge, %.critedge
  br label %.critedge, !llvm.loop !12

20:                                               ; preds = %.critedge
  %21 = load ptr, ptr %2, align 8
  %22 = ptrtoint ptr %.0 to i64
  %23 = ptrtoint ptr %21 to i64
  %24 = sub i64 %22, %23
  %25 = trunc i64 %24 to i32
  br label %26

26:                                               ; preds = %20, %_ZN15ClassListParser6linenoEv.exit
  %.06 = phi i32 [ 0, %_ZN15ClassListParser6linenoEv.exit ], [ %25, %20 ]
  ret i32 %.06
}